; Function Attrs: mustprogress uwtable
define hidden void @_ZN11upolynomial12core_manager3divEjP3mpzRKS1_(ptr noundef nonnull align 8 dereferenceable(272) %0, i32 noundef %1, ptr noundef %2, ptr noundef nonnull align 8 dereferenceable(16) %3) local_unnamed_addr #3 align 2 {
  %5 = getelementptr inbounds nuw i8, ptr %3, i64 4
  %6 = load i8, ptr %5, align 4
  %7 = and i8 %6, 1
  %8 = icmp ne i8 %7, 0
  %9 = load i32, ptr %3, align 8
  %10 = icmp ne i32 %9, 1
  %.not12 = select i1 %8, i1 true, i1 %10
  %11 = icmp ne i32 %1, 0
  %or.cond = and i1 %.not12, %11
  br i1 %or.cond, label %.lr.ph, label %.loopexit

.lr.ph:                                           ; preds = %4
  %12 = getelementptr inbounds nuw i8, ptr %0, i64 8
  %wide.trip.count = zext i32 %1 to i64
  br label %13

13:                                               ; preds = %.lr.ph, %13
  %indvars.iv = phi i64 [ 0, %.lr.ph ], [ %indvars.iv.next, %13 ]
  %14 = getelementptr inbounds nuw %class.mpz, ptr %2, i64 %indvars.iv
  tail call void @_ZN13mpzzp_manager3divERK3mpzS2_RS0_(ptr noundef nonnull align 8 dereferenceable(136) %12, ptr noundef nonnull align 8 dereferenceable(16) %14, ptr noundef nonnull align 8 dereferenceable(16) %3, ptr noundef nonnull align 8 dereferenceable(16) %14)
  %indvars.iv.next = add nuw nsw i64 %indvars.iv, 1
  %exitcond.not = icmp eq i64 %indvars.iv.next, %wide.trip.count
  br i1 %exitcond.not, label %.loopexit, label %13, !llvm.loop !91

.loopexit:                                        ; preds = %13, %4
  ret void
}